Certificate:
    Data:
        Version: 3 (0x2)
        Serial Number:
            32:40:3e:3b:b6:9a:1a:9a:6c:22:87:b1:82:62:2a:3f:0e:87:50:d5
        Signature Algorithm: SM2-with-SM3
        Issuer: C=CN, O=My Intermediate CA, CN=Intermediate CA
        Validity
            Not Before: Dec 11 06:29:16 2025 GMT
            Not After : Dec  9 06:29:16 2035 GMT
        Subject: C=CN, O=My Org, CN=User 2
        Subject Public Key Info:
            Public Key Algorithm: id-ecPublicKey
                Public-Key: (256 bit)
                pub:
                    04:e5:07:46:2c:13:a7:d5:44:e3:c6:21:43:44:5d:
                    39:ea:1b:e1:2e:0e:32:ac:6c:0f:06:1d:9c:44:b2:
                    b2:f1:b1:46:b2:db:be:51:08:99:90:d2:1b:0b:0d:
                    3b:d6:41:bf:dc:8a:1c:da:b4:0e:b3:e4:5c:d6:b2:
                    12:b6:84:70:c7
                ASN1 OID: SM2
        X509v3 extensions:
            X509v3 Basic Constraints: 
                CA:FALSE
            X509v3 Key Usage: 
                Digital Signature, Key Encipherment
            X509v3 Extended Key Usage: 
                TLS Web Server Authentication, TLS Web Client Authentication
            X509v3 Subject Key Identifier: 
                D4:E0:45:94:B7:7C:9D:14:BC:3E:17:75:86:EE:E8:70:AC:35:B2:15
            X509v3 Authority Key Identifier: 
                9B:97:FA:23:F0:FD:50:62:11:97:BB:7E:DB:03:A3:A4:B0:4E:0C:E1
    Signature Algorithm: SM2-with-SM3
    Signature Value:
        30:44:02:20:77:9d:4d:27:7b:ef:b5:a3:74:40:fd:77:76:fb:
        25:04:3a:73:c4:75:ac:cd:7a:67:0f:0d:61:21:d0:b2:86:13:
        02:20:0d:ba:15:8c:b4:c6:20:2e:bf:11:fd:49:5b:ef:fe:51:
        83:d6:39:66:9c:71:98:4b:6d:99:51:54:42:c2:42:49
-----BEGIN CERTIFICATE-----
MIIB7TCCAZSgAwIBAgIUMkA+O7aaGppsIoexgmIqPw6HUNUwCgYIKoEcz1UBg3Uw
RDELMAkGA1UEBhMCQ04xGzAZBgNVBAoMEk15IEludGVybWVkaWF0ZSBDQTEYMBYG
A1UEAwwPSW50ZXJtZWRpYXRlIENBMB4XDTI1MTIxMTA2MjkxNloXDTM1MTIwOTA2
MjkxNlowLzELMAkGA1UEBhMCQ04xDzANBgNVBAoMBk15IE9yZzEPMA0GA1UEAwwG
VXNlciAyMFkwEwYHKoZIzj0CAQYIKoEcz1UBgi0DQgAE5QdGLBOn1UTjxiFDRF05
6hvhLg4yrGwPBh2cRLKy8bFGstu+UQiZkNIbCw071kG/3Ioc2rQOs+Rc1rIStoRw
x6N5MHcwCQYDVR0TBAIwADALBgNVHQ8EBAMCBaAwHQYDVR0lBBYwFAYIKwYBBQUH
AwEGCCsGAQUFBwMCMB0GA1UdDgQWBBTU4EWUt3ydFLw+F3WG7uhwrDWyFTAfBgNV
HSMEGDAWgBSbl/oj8P1QYhGXu37bA6OksE4M4TAKBggqgRzPVQGDdQNHADBEAiB3
nU0ne++1o3RA/Xd2+yUEOnPEdazNemcPDWEh0LKGEwIgDboVjLTGIC6/Ef1JW+/+
UYPWOWaccZhLbZlRVELCQkk=
-----END CERTIFICATE-----
