Certificate:
    Data:
        Version: 3 (0x2)
        Serial Number:
            22:ed:3b:10:f7:35:e1:30:11:65:b1:ef:81:8b:2b:ec:ef:7c:f2:6d
        Signature Algorithm: SM2-with-SM3
        Issuer: C=CN, O=My Intermediate CA, CN=Intermediate CA
        Validity
            Not Before: Dec 11 06:29:19 2025 GMT
            Not After : Dec  9 06:29:19 2035 GMT
        Subject: C=CN, O=My Org, CN=User 3
        Subject Public Key Info:
            Public Key Algorithm: id-ecPublicKey
                Public-Key: (256 bit)
                pub:
                    04:77:b8:0e:c8:48:30:34:04:4c:ea:99:b5:0b:8a:
                    64:b2:9a:3a:cb:2a:7c:c8:a3:1e:8c:9c:1b:1f:c0:
                    db:aa:57:b0:d6:78:d7:d6:cb:d7:68:7d:e1:26:58:
                    1c:32:e2:01:cc:cd:57:0c:09:32:a8:13:bb:65:5e:
                    fc:98:a1:ca:8b
                ASN1 OID: SM2
        X509v3 extensions:
            X509v3 Basic Constraints: 
                CA:FALSE
            X509v3 Key Usage: 
                Digital Signature, Key Encipherment
            X509v3 Extended Key Usage: 
                TLS Web Server Authentication, TLS Web Client Authentication
            X509v3 Subject Key Identifier: 
                84:84:BC:1E:0E:70:75:81:18:94:65:46:9E:B3:28:38:B6:41:36:A8
            X509v3 Authority Key Identifier: 
                9B:97:FA:23:F0:FD:50:62:11:97:BB:7E:DB:03:A3:A4:B0:4E:0C:E1
    Signature Algorithm: SM2-with-SM3
    Signature Value:
        30:44:02:20:71:11:b6:c5:6f:ab:a6:67:23:ff:d5:29:a9:ae:
        87:22:51:53:ac:fe:cc:01:21:cf:c2:0e:39:59:a3:c5:f7:33:
        02:20:20:38:1d:f4:5f:7d:e1:1d:e3:8c:84:d5:ea:08:23:fe:
        3d:98:84:8a:5a:58:f7:26:82:6c:2a:44:6b:c7:6c:84
-----BEGIN CERTIFICATE-----
MIIB7TCCAZSgAwIBAgIUIu07EPc14TARZbHvgYsr7O988m0wCgYIKoEcz1UBg3Uw
RDELMAkGA1UEBhMCQ04xGzAZBgNVBAoMEk15IEludGVybWVkaWF0ZSBDQTEYMBYG
A1UEAwwPSW50ZXJtZWRpYXRlIENBMB4XDTI1MTIxMTA2MjkxOVoXDTM1MTIwOTA2
MjkxOVowLzELMAkGA1UEBhMCQ04xDzANBgNVBAoMBk15IE9yZzEPMA0GA1UEAwwG
VXNlciAzMFkwEwYHKoZIzj0CAQYIKoEcz1UBgi0DQgAEd7gOyEgwNARM6pm1C4pk
spo6yyp8yKMejJwbH8Dbqlew1njX1svXaH3hJlgcMuIBzM1XDAkyqBO7ZV78mKHK
i6N5MHcwCQYDVR0TBAIwADALBgNVHQ8EBAMCBaAwHQYDVR0lBBYwFAYIKwYBBQUH
AwEGCCsGAQUFBwMCMB0GA1UdDgQWBBSEhLweDnB1gRiUZUaesyg4tkE2qDAfBgNV
HSMEGDAWgBSbl/oj8P1QYhGXu37bA6OksE4M4TAKBggqgRzPVQGDdQNHADBEAiBx
EbbFb6umZyP/1SmprociUVOs/swBIc/CDjlZo8X3MwIgIDgd9F994R3jjITV6ggj
/j2YhIpaWPcmgmwqRGvHbIQ=
-----END CERTIFICATE-----
